target datalayout = "e-m:e-p270:32:32-p271:32:32-p272:64:64-i64:64-i128:128-f80:128-n8:16:32:64-S128"
target triple = "x86_64-pc-linux-gnu"

%struct.GetByteContext = type { ptr, ptr, ptr }
%struct.AVFormatContext = type { ptr, ptr, ptr, ptr, ptr, i32, i32, ptr, i32, ptr, i32, ptr, ptr, i64, i64, i64, i32, i32, i32, i64, i64, ptr, i32, i32, ptr, i32, i32, i32, i32, ptr, i64, i32, i32, %struct.AVIOInterruptCB, i32, i32, i32, i32, i64, i32, i32, i32, i32, i32, i32, i32, i32, i32, i32, i32, i32, i64, i32, i32, i32, i32, i32, ptr, ptr, ptr, ptr, i32, ptr, ptr, ptr, ptr, i32, ptr, ptr, i64, ptr, ptr, ptr, i64 }
%struct.AVIOInterruptCB = type { ptr, ptr }
%struct.ogg = type { ptr, i32, i32, i32, i64, ptr }
%struct.ogg_stream = type { ptr, i32, i32, i32, i32, i32, i32, i32, i64, i64, i64, i64, i64, i64, i32, ptr, i32, i32, i32, [255 x i8], i32, i32, i32, i32, i32, i32, i32, i32, ptr, i64, ptr }
%struct.AVStream = type { ptr, i32, i32, ptr, ptr, %struct.AVRational, i64, i64, i64, i32, i32, %struct.AVRational, ptr, %struct.AVRational, %struct.AVPacket, i32, %struct.AVRational, i32 }
%struct.AVPacket = type { ptr, i64, i64, ptr, i32, i32, i32, ptr, i32, i64, i64, ptr, ptr, %struct.AVRational }
%struct.AVRational = type { i32, i32 }
%struct.AVCodecParameters = type { i32, i32, i32, ptr, i32, ptr, i32, i32, i64, i32, i32, i32, i32, i32, i32, %struct.AVRational, %struct.AVRational, i32, i32, i32, i32, i32, i32, i32, %struct.AVChannelLayout, i32, i32, i32, i32, i32, i32 }
%struct.AVChannelLayout = type { i32, i32, %union.anon, ptr }
%union.anon = type { i64 }
%struct.FFStream = type { %struct.AVStream, ptr, i32, ptr, i32, ptr, i32, %struct.anon, i32, i32, %struct.FFFrac, ptr, ptr, i32, i32, i64, i64, i32, i32, i32, i64, i64, i64, i32, i64, i64, i64, i32, i32, [17 x i64], [17 x i8], [17 x i64], i64, i8, i8, %struct.AVRational, %struct.AVProbeData, ptr, i64, i32, i32, i32, ptr, i32, i32, i64, i64, ptr, %struct.AVRational }
%struct.anon = type { ptr, i32 }
%struct.FFFrac = type { i64, i64, i64 }
%struct.AVProbeData = type { ptr, ptr, i32, ptr }

@.str.2 = private unnamed_addr constant [30 x i8] c"Assertion %s failed at %s:%d\0A\00", align 1
@.str.3 = private unnamed_addr constant [14 x i8] c"buf_size >= 0\00", align 1
@.str.4 = private unnamed_addr constant [26 x i8] c"./libavcodec/bytestream.h\00", align 1

; Function Attrs: alwaysinline nounwind willreturn memory(none) uwtable
define internal i32 @av_bswap32(i32 noundef %0) #5 {
  %2 = alloca i32, align 4
  store i32 %0, ptr %2, align 4, !tbaa !9
  %3 = load i32, ptr %2, align 4, !tbaa !9
  %4 = shl i32 %3, 8
  %5 = and i32 %4, 65280
  %6 = load i32, ptr %2, align 4, !tbaa !9
  %7 = lshr i32 %6, 8
  %8 = and i32 %7, 255
  %9 = or i32 %5, %8
  %10 = shl i32 %9, 16
  %11 = load i32, ptr %2, align 4, !tbaa !9
  %12 = lshr i32 %11, 16
  %13 = shl i32 %12, 8
  %14 = and i32 %13, 65280
  %15 = load i32, ptr %2, align 4, !tbaa !9
  %16 = lshr i32 %15, 16
  %17 = lshr i32 %16, 8
  %18 = and i32 %17, 255
  %19 = or i32 %14, %18
  %20 = or i32 %10, %19
  ret i32 %20
}

; Function Attrs: alwaysinline nounwind uwtable
define internal i32 @bytestream_get_be32(ptr noundef %0) #2 {
  %2 = alloca ptr, align 8
  store ptr %0, ptr %2, align 8, !tbaa !88
  %3 = load ptr, ptr %2, align 8, !tbaa !88
  %4 = load ptr, ptr %3, align 8, !tbaa !83
  %5 = getelementptr inbounds i8, ptr %4, i64 4
  store ptr %5, ptr %3, align 8, !tbaa !83
  %6 = load ptr, ptr %2, align 8, !tbaa !88
  %7 = load ptr, ptr %6, align 8, !tbaa !83
  %8 = getelementptr inbounds i8, ptr %7, i64 -4
  %9 = load i32, ptr %8, align 1, !tbaa !41
  %10 = call i32 @av_bswap32(i32 noundef %9) #11
  ret i32 %10
}

; Function Attrs: alwaysinline nounwind uwtable
define internal i32 @bytestream_get_byte(ptr noundef %0) #2 {
  %2 = alloca ptr, align 8
  store ptr %0, ptr %2, align 8, !tbaa !88
  %3 = load ptr, ptr %2, align 8, !tbaa !88
  %4 = load ptr, ptr %3, align 8, !tbaa !83
  %5 = getelementptr inbounds i8, ptr %4, i64 1
  store ptr %5, ptr %3, align 8, !tbaa !83
  %6 = load ptr, ptr %2, align 8, !tbaa !88
  %7 = load ptr, ptr %6, align 8, !tbaa !83
  %8 = getelementptr inbounds i8, ptr %7, i64 -1
  %9 = getelementptr inbounds i8, ptr %8, i64 0
  %10 = load i8, ptr %9, align 1, !tbaa !41
  %11 = zext i8 %10 to i32
  ret i32 %11
}

; Function Attrs: alwaysinline nounwind uwtable
define internal i32 @bytestream2_get_bufferu(ptr noundef %0, ptr noundef %1, i32 noundef %2) #2 {
  %4 = alloca ptr, align 8
  %5 = alloca ptr, align 8
  %6 = alloca i32, align 4
  store ptr %0, ptr %4, align 8, !tbaa !81
  store ptr %1, ptr %5, align 8, !tbaa !83
  store i32 %2, ptr %6, align 4, !tbaa !9
  %7 = load ptr, ptr %5, align 8, !tbaa !83
  %8 = load ptr, ptr %4, align 8, !tbaa !81
  %9 = getelementptr inbounds nuw %struct.GetByteContext, ptr %8, i32 0, i32 0
  %10 = load ptr, ptr %9, align 8, !tbaa !84
  %11 = load i32, ptr %6, align 4, !tbaa !9
  %12 = zext i32 %11 to i64
  call void @llvm.memcpy.p0.p0.i64(ptr align 1 %7, ptr align 1 %10, i64 %12, i1 false)
  %13 = load i32, ptr %6, align 4, !tbaa !9
  %14 = load ptr, ptr %4, align 8, !tbaa !81
  %15 = getelementptr inbounds nuw %struct.GetByteContext, ptr %14, i32 0, i32 0
  %16 = load ptr, ptr %15, align 8, !tbaa !84
  %17 = zext i32 %13 to i64
  %18 = getelementptr inbounds nuw i8, ptr %16, i64 %17
  store ptr %18, ptr %15, align 8, !tbaa !84
  %19 = load i32, ptr %6, align 4, !tbaa !9
  ret i32 %19
}

; Function Attrs: alwaysinline nounwind uwtable
define internal ptr @ffstream(ptr noundef %0) #2 {
  %2 = alloca ptr, align 8
  store ptr %0, ptr %2, align 8, !tbaa !35
  %3 = load ptr, ptr %2, align 8, !tbaa !35
  ret ptr %3
}

; Function Attrs: alwaysinline nounwind uwtable
define internal i32 @bytestream2_get_be32u(ptr noundef %0) #2 {
  %2 = alloca ptr, align 8
  store ptr %0, ptr %2, align 8, !tbaa !81
  %3 = load ptr, ptr %2, align 8, !tbaa !81
  %4 = getelementptr inbounds nuw %struct.GetByteContext, ptr %3, i32 0, i32 0
  %5 = call i32 @bytestream_get_be32(ptr noundef %4)
  ret i32 %5
}

; Function Attrs: alwaysinline nounwind uwtable
define internal i32 @bytestream2_get_byteu(ptr noundef %0) #2 {
  %2 = alloca ptr, align 8
  store ptr %0, ptr %2, align 8, !tbaa !81
  %3 = load ptr, ptr %2, align 8, !tbaa !81
  %4 = getelementptr inbounds nuw %struct.GetByteContext, ptr %3, i32 0, i32 0
  %5 = call i32 @bytestream_get_byte(ptr noundef %4)
  ret i32 %5
}

; Function Attrs: alwaysinline nounwind uwtable
define internal void @bytestream2_skipu(ptr noundef %0, i32 noundef %1) #2 {
  %3 = alloca ptr, align 8
  %4 = alloca i32, align 4
  store ptr %0, ptr %3, align 8, !tbaa !81
  store i32 %1, ptr %4, align 4, !tbaa !9
  %5 = load i32, ptr %4, align 4, !tbaa !9
  %6 = load ptr, ptr %3, align 8, !tbaa !81
  %7 = getelementptr inbounds nuw %struct.GetByteContext, ptr %6, i32 0, i32 0
  %8 = load ptr, ptr %7, align 8, !tbaa !84
  %9 = zext i32 %5 to i64
  %10 = getelementptr inbounds nuw i8, ptr %8, i64 %9
  store ptr %10, ptr %7, align 8, !tbaa !84
  ret void
}

; Function Attrs: alwaysinline nounwind uwtable
define internal i32 @bytestream2_get_bytes_left(ptr noundef %0) #2 {
  %2 = alloca ptr, align 8
  store ptr %0, ptr %2, align 8, !tbaa !81
  %3 = load ptr, ptr %2, align 8, !tbaa !81
  %4 = getelementptr inbounds nuw %struct.GetByteContext, ptr %3, i32 0, i32 1
  %5 = load ptr, ptr %4, align 8, !tbaa !87
  %6 = load ptr, ptr %2, align 8, !tbaa !81
  %7 = getelementptr inbounds nuw %struct.GetByteContext, ptr %6, i32 0, i32 0
  %8 = load ptr, ptr %7, align 8, !tbaa !84
  %9 = ptrtoint ptr %5 to i64
  %10 = ptrtoint ptr %8 to i64
  %11 = sub i64 %9, %10
  %12 = trunc i64 %11 to i32
  ret i32 %12
}

; Function Attrs: alwaysinline nounwind uwtable
define internal i32 @bytestream2_get_byte(ptr noundef %0) #2 {
  %2 = alloca i32, align 4
  %3 = alloca ptr, align 8
  store ptr %0, ptr %3, align 8, !tbaa !81
  %4 = load ptr, ptr %3, align 8, !tbaa !81
  %5 = getelementptr inbounds nuw %struct.GetByteContext, ptr %4, i32 0, i32 1
  %6 = load ptr, ptr %5, align 8, !tbaa !87
  %7 = load ptr, ptr %3, align 8, !tbaa !81
  %8 = getelementptr inbounds nuw %struct.GetByteContext, ptr %7, i32 0, i32 0
  %9 = load ptr, ptr %8, align 8, !tbaa !84
  %10 = ptrtoint ptr %6 to i64
  %11 = ptrtoint ptr %9 to i64
  %12 = sub i64 %10, %11
  %13 = icmp slt i64 %12, 1
  br i1 %13, label %14, label %20

14:                                               ; preds = %1
  %15 = load ptr, ptr %3, align 8, !tbaa !81
  %16 = getelementptr inbounds nuw %struct.GetByteContext, ptr %15, i32 0, i32 1
  %17 = load ptr, ptr %16, align 8, !tbaa !87
  %18 = load ptr, ptr %3, align 8, !tbaa !81
  %19 = getelementptr inbounds nuw %struct.GetByteContext, ptr %18, i32 0, i32 0
  store ptr %17, ptr %19, align 8, !tbaa !84
  store i32 0, ptr %2, align 4
  br label %23

20:                                               ; preds = %1
  %21 = load ptr, ptr %3, align 8, !tbaa !81
  %22 = call i32 @bytestream2_get_byteu(ptr noundef %21)
  store i32 %22, ptr %2, align 4
  br label %23

23:                                               ; preds = %20, %14
  %24 = load i32, ptr %2, align 4
  ret i32 %24
}

; Function Attrs: alwaysinline nounwind uwtable
define internal void @bytestream2_init(ptr noundef %0, ptr noundef %1, i32 noundef %2) #2 {
  %4 = alloca ptr, align 8
  %5 = alloca ptr, align 8
  %6 = alloca i32, align 4
  store ptr %0, ptr %4, align 8, !tbaa !81
  store ptr %1, ptr %5, align 8, !tbaa !83
  store i32 %2, ptr %6, align 4, !tbaa !9
  br label %7

7:                                                ; preds = %3
  %8 = load i32, ptr %6, align 4, !tbaa !9
  %9 = icmp sge i32 %8, 0
  br i1 %9, label %11, label %10

10:                                               ; preds = %7
  call void (ptr, i32, ptr, ...) @av_log(ptr noundef null, i32 noundef 0, ptr noundef @.str.2, ptr noundef @.str.3, ptr noundef @.str.4, i32 noundef 141)
  call void @abort() #10
  unreachable

11:                                               ; preds = %7
  br label %12

12:                                               ; preds = %11
  %13 = load ptr, ptr %5, align 8, !tbaa !83
  %14 = load ptr, ptr %4, align 8, !tbaa !81
  %15 = getelementptr inbounds nuw %struct.GetByteContext, ptr %14, i32 0, i32 0
  store ptr %13, ptr %15, align 8, !tbaa !84
  %16 = load ptr, ptr %5, align 8, !tbaa !83
  %17 = load ptr, ptr %4, align 8, !tbaa !81
  %18 = getelementptr inbounds nuw %struct.GetByteContext, ptr %17, i32 0, i32 2
  store ptr %16, ptr %18, align 8, !tbaa !86
  %19 = load ptr, ptr %5, align 8, !tbaa !83
  %20 = load i32, ptr %6, align 4, !tbaa !9
  %21 = sext i32 %20 to i64
  %22 = getelementptr inbounds i8, ptr %19, i64 %21
  %23 = load ptr, ptr %4, align 8, !tbaa !81
  %24 = getelementptr inbounds nuw %struct.GetByteContext, ptr %23, i32 0, i32 1
  store ptr %22, ptr %24, align 8, !tbaa !87
  ret void
}

; Function Attrs: nounwind uwtable
define internal i32 @flac_header(ptr noundef %0, i32 noundef %1) #0 {
  %3 = alloca i32, align 4
  %4 = alloca ptr, align 8
  %5 = alloca i32, align 4
  %6 = alloca ptr, align 8
  %7 = alloca ptr, align 8
  %8 = alloca ptr, align 8
  %9 = alloca %struct.GetByteContext, align 8
  %10 = alloca i32, align 4
  %11 = alloca i32, align 4
  %12 = alloca i32, align 4
  %13 = alloca i32, align 4
  store ptr %0, ptr %4, align 8, !tbaa !4
  store i32 %1, ptr %5, align 4, !tbaa !9
  call void @llvm.lifetime.start.p0(i64 8, ptr %6) #8
  %14 = load ptr, ptr %4, align 8, !tbaa !4
  %15 = getelementptr inbounds nuw %struct.AVFormatContext, ptr %14, i32 0, i32 3
  %16 = load ptr, ptr %15, align 8, !tbaa !11
  store ptr %16, ptr %6, align 8, !tbaa !27
  call void @llvm.lifetime.start.p0(i64 8, ptr %7) #8
  %17 = load ptr, ptr %6, align 8, !tbaa !27
  %18 = getelementptr inbounds nuw %struct.ogg, ptr %17, i32 0, i32 0
  %19 = load ptr, ptr %18, align 8, !tbaa !29
  %20 = load i32, ptr %5, align 4, !tbaa !9
  %21 = sext i32 %20 to i64
  %22 = getelementptr inbounds %struct.ogg_stream, ptr %19, i64 %21
  store ptr %22, ptr %7, align 8, !tbaa !33
  call void @llvm.lifetime.start.p0(i64 8, ptr %8) #8
  %23 = load ptr, ptr %4, align 8, !tbaa !4
  %24 = getelementptr inbounds nuw %struct.AVFormatContext, ptr %23, i32 0, i32 7
  %25 = load ptr, ptr %24, align 8, !tbaa !34
  %26 = load i32, ptr %5, align 4, !tbaa !9
  %27 = sext i32 %26 to i64
  %28 = getelementptr inbounds ptr, ptr %25, i64 %27
  %29 = load ptr, ptr %28, align 8, !tbaa !35
  store ptr %29, ptr %8, align 8, !tbaa !35
  call void @llvm.lifetime.start.p0(i64 24, ptr %9) #8
  call void @llvm.lifetime.start.p0(i64 4, ptr %10) #8
  call void @llvm.lifetime.start.p0(i64 4, ptr %11) #8
  %30 = load ptr, ptr %7, align 8, !tbaa !33
  %31 = getelementptr inbounds nuw %struct.ogg_stream, ptr %30, i32 0, i32 0
  %32 = load ptr, ptr %31, align 8, !tbaa !37
  %33 = load ptr, ptr %7, align 8, !tbaa !33
  %34 = getelementptr inbounds nuw %struct.ogg_stream, ptr %33, i32 0, i32 3
  %35 = load i32, ptr %34, align 8, !tbaa !40
  %36 = zext i32 %35 to i64
  %37 = getelementptr inbounds nuw i8, ptr %32, i64 %36
  %38 = load i8, ptr %37, align 1, !tbaa !41
  %39 = zext i8 %38 to i32
  %40 = icmp eq i32 %39, 255
  br i1 %40, label %41, label %42

41:                                               ; preds = %2
  store i32 0, ptr %3, align 4
  store i32 1, ptr %12, align 4
  br label %159

42:                                               ; preds = %2
  %43 = load ptr, ptr %7, align 8, !tbaa !33
  %44 = getelementptr inbounds nuw %struct.ogg_stream, ptr %43, i32 0, i32 0
  %45 = load ptr, ptr %44, align 8, !tbaa !37
  %46 = load ptr, ptr %7, align 8, !tbaa !33
  %47 = getelementptr inbounds nuw %struct.ogg_stream, ptr %46, i32 0, i32 3
  %48 = load i32, ptr %47, align 8, !tbaa !40
  %49 = zext i32 %48 to i64
  %50 = getelementptr inbounds nuw i8, ptr %45, i64 %49
  %51 = load ptr, ptr %7, align 8, !tbaa !33
  %52 = getelementptr inbounds nuw %struct.ogg_stream, ptr %51, i32 0, i32 4
  %53 = load i32, ptr %52, align 4, !tbaa !42
  call void @bytestream2_init(ptr noundef %9, ptr noundef %50, i32 noundef %53)
  %54 = call i32 @bytestream2_get_byte(ptr noundef %9)
  %55 = and i32 %54, 127
  store i32 %55, ptr %10, align 4, !tbaa !9
  %56 = load i32, ptr %10, align 4, !tbaa !9
  %57 = icmp eq i32 %56, 127
  br i1 %57, label %58, label %137

58:                                               ; preds = %42
  call void @llvm.lifetime.start.p0(i64 4, ptr %13) #8
  %59 = call i32 @bytestream2_get_bytes_left(ptr noundef %9)
  %60 = icmp slt i32 %59, 50
  br i1 %60, label %61, label %62

61:                                               ; preds = %58
  store i32 -1094995529, ptr %3, align 4
  store i32 1, ptr %12, align 4
  br label %134

62:                                               ; preds = %58
  call void @bytestream2_skipu(ptr noundef %9, i32 noundef 4)
  %63 = call i32 @bytestream2_get_byteu(ptr noundef %9)
  %64 = icmp ne i32 %63, 1
  br i1 %64, label %65, label %66

65:                                               ; preds = %62
  store i32 -1, ptr %3, align 4
  store i32 1, ptr %12, align 4
  br label %134

66:                                               ; preds = %62
  call void @bytestream2_skipu(ptr noundef %9, i32 noundef 3)
  call void @bytestream2_skipu(ptr noundef %9, i32 noundef 4)
  %67 = call i32 @bytestream2_get_be32u(ptr noundef %9)
  %68 = icmp ne i32 %67, 34
  br i1 %68, label %69, label %70

69:                                               ; preds = %66
  store i32 -1, ptr %3, align 4
  store i32 1, ptr %12, align 4
  br label %134

70:                                               ; preds = %66
  %71 = load ptr, ptr %8, align 8, !tbaa !35
  %72 = getelementptr inbounds nuw %struct.AVStream, ptr %71, i32 0, i32 3
  %73 = load ptr, ptr %72, align 8, !tbaa !43
  %74 = getelementptr inbounds nuw %struct.AVCodecParameters, ptr %73, i32 0, i32 0
  store i32 1, ptr %74, align 8, !tbaa !50
  %75 = load ptr, ptr %8, align 8, !tbaa !35
  %76 = getelementptr inbounds nuw %struct.AVStream, ptr %75, i32 0, i32 3
  %77 = load ptr, ptr %76, align 8, !tbaa !43
  %78 = getelementptr inbounds nuw %struct.AVCodecParameters, ptr %77, i32 0, i32 1
  store i32 86028, ptr %78, align 4, !tbaa !53
  %79 = load ptr, ptr %8, align 8, !tbaa !35
  %80 = call ptr @ffstream(ptr noundef %79)
  %81 = getelementptr inbounds nuw %struct.FFStream, ptr %80, i32 0, i32 41
  store i32 2, ptr %81, align 8, !tbaa !54
  %82 = load ptr, ptr %8, align 8, !tbaa !35
  %83 = getelementptr inbounds nuw %struct.AVStream, ptr %82, i32 0, i32 3
  %84 = load ptr, ptr %83, align 8, !tbaa !43
  %85 = call i32 @ff_alloc_extradata(ptr noundef %84, i32 noundef 34)
  store i32 %85, ptr %11, align 4, !tbaa !9
  %86 = icmp slt i32 %85, 0
  br i1 %86, label %87, label %89

87:                                               ; preds = %70
  %88 = load i32, ptr %11, align 4, !tbaa !9
  store i32 %88, ptr %3, align 4
  store i32 1, ptr %12, align 4
  br label %134

89:                                               ; preds = %70
  %90 = load ptr, ptr %8, align 8, !tbaa !35
  %91 = getelementptr inbounds nuw %struct.AVStream, ptr %90, i32 0, i32 3
  %92 = load ptr, ptr %91, align 8, !tbaa !43
  %93 = getelementptr inbounds nuw %struct.AVCodecParameters, ptr %92, i32 0, i32 3
  %94 = load ptr, ptr %93, align 8, !tbaa !66
  %95 = call i32 @bytestream2_get_bufferu(ptr noundef %9, ptr noundef %94, i32 noundef 34)
  %96 = load ptr, ptr %8, align 8, !tbaa !35
  %97 = getelementptr inbounds nuw %struct.AVStream, ptr %96, i32 0, i32 3
  %98 = load ptr, ptr %97, align 8, !tbaa !43
  %99 = getelementptr inbounds nuw %struct.AVCodecParameters, ptr %98, i32 0, i32 3
  %100 = load ptr, ptr %99, align 8, !tbaa !66
  %101 = getelementptr inbounds i8, ptr %100, i64 10
  %102 = getelementptr inbounds i8, ptr %101, i64 0
  %103 = load i8, ptr %102, align 1, !tbaa !41
  %104 = zext i8 %103 to i32
  %105 = shl i32 %104, 16
  %106 = load ptr, ptr %8, align 8, !tbaa !35
  %107 = getelementptr inbounds nuw %struct.AVStream, ptr %106, i32 0, i32 3
  %108 = load ptr, ptr %107, align 8, !tbaa !43
  %109 = getelementptr inbounds nuw %struct.AVCodecParameters, ptr %108, i32 0, i32 3
  %110 = load ptr, ptr %109, align 8, !tbaa !66
  %111 = getelementptr inbounds i8, ptr %110, i64 10
  %112 = getelementptr inbounds i8, ptr %111, i64 1
  %113 = load i8, ptr %112, align 1, !tbaa !41
  %114 = zext i8 %113 to i32
  %115 = shl i32 %114, 8
  %116 = or i32 %105, %115
  %117 = load ptr, ptr %8, align 8, !tbaa !35
  %118 = getelementptr inbounds nuw %struct.AVStream, ptr %117, i32 0, i32 3
  %119 = load ptr, ptr %118, align 8, !tbaa !43
  %120 = getelementptr inbounds nuw %struct.AVCodecParameters, ptr %119, i32 0, i32 3
  %121 = load ptr, ptr %120, align 8, !tbaa !66
  %122 = getelementptr inbounds i8, ptr %121, i64 10
  %123 = getelementptr inbounds i8, ptr %122, i64 2
  %124 = load i8, ptr %123, align 1, !tbaa !41
  %125 = zext i8 %124 to i32
  %126 = or i32 %116, %125
  %127 = ashr i32 %126, 4
  store i32 %127, ptr %13, align 4, !tbaa !9
  %128 = load i32, ptr %13, align 4, !tbaa !9
  %129 = icmp ne i32 %128, 0
  br i1 %129, label %131, label %130

130:                                              ; preds = %89
  store i32 -1094995529, ptr %3, align 4
  store i32 1, ptr %12, align 4
  br label %134

131:                                              ; preds = %89
  %132 = load ptr, ptr %8, align 8, !tbaa !35
  %133 = load i32, ptr %13, align 4, !tbaa !9
  call void @avpriv_set_pts_info(ptr noundef %132, i32 noundef 64, i32 noundef 1, i32 noundef %133)
  store i32 0, ptr %12, align 4
  br label %134

134:                                              ; preds = %131, %130, %87, %69, %65, %61
  call void @llvm.lifetime.end.p0(i64 4, ptr %13) #8
  %135 = load i32, ptr %12, align 4
  switch i32 %135, label %159 [
    i32 0, label %136
  ]

136:                                              ; preds = %134
  br label %158

137:                                              ; preds = %42
  %138 = load i32, ptr %10, align 4, !tbaa !9
  %139 = icmp eq i32 %138, 4
  br i1 %139, label %140, label %157

140:                                              ; preds = %137
  %141 = load ptr, ptr %4, align 8, !tbaa !4
  %142 = load ptr, ptr %8, align 8, !tbaa !35
  %143 = load ptr, ptr %7, align 8, !tbaa !33
  %144 = getelementptr inbounds nuw %struct.ogg_stream, ptr %143, i32 0, i32 0
  %145 = load ptr, ptr %144, align 8, !tbaa !37
  %146 = load ptr, ptr %7, align 8, !tbaa !33
  %147 = getelementptr inbounds nuw %struct.ogg_stream, ptr %146, i32 0, i32 3
  %148 = load i32, ptr %147, align 8, !tbaa !40
  %149 = zext i32 %148 to i64
  %150 = getelementptr inbounds nuw i8, ptr %145, i64 %149
  %151 = getelementptr inbounds i8, ptr %150, i64 4
  %152 = load ptr, ptr %7, align 8, !tbaa !33
  %153 = getelementptr inbounds nuw %struct.ogg_stream, ptr %152, i32 0, i32 4
  %154 = load i32, ptr %153, align 4, !tbaa !42
  %155 = sub i32 %154, 4
  %156 = call i32 @ff_vorbis_stream_comment(ptr noundef %141, ptr noundef %142, ptr noundef %151, i32 noundef %155)
  br label %157

157:                                              ; preds = %140, %137
  br label %158

158:                                              ; preds = %157, %136
  store i32 1, ptr %3, align 4
  store i32 1, ptr %12, align 4
  br label %159

159:                                              ; preds = %158, %134, %41
  call void @llvm.lifetime.end.p0(i64 4, ptr %11) #8
  call void @llvm.lifetime.end.p0(i64 4, ptr %10) #8
  call void @llvm.lifetime.end.p0(i64 24, ptr %9) #8
  call void @llvm.lifetime.end.p0(i64 8, ptr %8) #8
  call void @llvm.lifetime.end.p0(i64 8, ptr %7) #8
  call void @llvm.lifetime.end.p0(i64 8, ptr %6) #8
  %160 = load i32, ptr %3, align 4
  ret i32 %160
}