; Function Attrs: nounwind uwtable
define internal range(i32 -2147483648, 2) i32 @flac_header(ptr noundef %0, i32 noundef %1) #0 {
  %3 = getelementptr inbounds nuw i8, ptr %0, i64 24
  %4 = load ptr, ptr %3, align 8, !tbaa !4
  %5 = load ptr, ptr %4, align 8, !tbaa !24
  %6 = sext i32 %1 to i64
  %7 = getelementptr inbounds %struct.ogg_stream, ptr %5, i64 %6
  %8 = getelementptr inbounds nuw i8, ptr %0, i64 48
  %9 = load ptr, ptr %8, align 8, !tbaa !28
  %10 = getelementptr inbounds ptr, ptr %9, i64 %6
  %11 = load ptr, ptr %10, align 8, !tbaa !29
  %12 = load ptr, ptr %7, align 8, !tbaa !31
  %13 = getelementptr inbounds nuw i8, ptr %7, i64 16
  %14 = load i32, ptr %13, align 8, !tbaa !34
  %15 = zext i32 %14 to i64
  %16 = getelementptr inbounds nuw i8, ptr %12, i64 %15
  %17 = load i8, ptr %16, align 1, !tbaa !35
  %18 = icmp eq i8 %17, -1
  br i1 %18, label %bytestream2_get_byte.exit.thread, label %19

19:                                               ; preds = %2
  %20 = getelementptr inbounds nuw i8, ptr %7, i64 20
  %21 = load i32, ptr %20, align 4, !tbaa !36
  %22 = icmp sgt i32 %21, -1
  br i1 %22, label %bytestream2_init.exit, label %23

23:                                               ; preds = %19
  tail call void (ptr, i32, ptr, ...) @av_log(ptr noundef null, i32 noundef 0, ptr noundef nonnull @.str.2, ptr noundef nonnull @.str.3, ptr noundef nonnull @.str.4, i32 noundef 141) #7
  tail call void @abort() #8
  unreachable

bytestream2_init.exit:                            ; preds = %19
  %24 = icmp eq i32 %21, 0
  br i1 %24, label %bytestream2_get_byte.exit.thread, label %bytestream2_get_byte.exit

bytestream2_get_byte.exit:                        ; preds = %bytestream2_init.exit
  %25 = and i8 %17, 127
  switch i8 %25, label %bytestream2_get_byte.exit.thread [
    i8 127, label %26
    i8 4, label %64
  ]

26:                                               ; preds = %bytestream2_get_byte.exit
  %27 = icmp samesign ult i32 %21, 51
  br i1 %27, label %bytestream2_get_byte.exit.thread, label %28

28:                                               ; preds = %26
  %29 = getelementptr inbounds nuw i8, ptr %16, i64 5
  %30 = load i8, ptr %29, align 1, !tbaa !35
  %.not = icmp eq i8 %30, 1
  br i1 %.not, label %31, label %bytestream2_get_byte.exit.thread

31:                                               ; preds = %28
  %32 = getelementptr inbounds nuw i8, ptr %16, i64 13
  %33 = getelementptr inbounds nuw i8, ptr %16, i64 17
  %34 = load i32, ptr %32, align 1, !tbaa !35
  %.not34 = icmp eq i32 %34, 570425344
  br i1 %.not34, label %35, label %bytestream2_get_byte.exit.thread

35:                                               ; preds = %31
  %36 = getelementptr inbounds nuw i8, ptr %11, i64 16
  %37 = load ptr, ptr %36, align 8, !tbaa !37
  store i32 1, ptr %37, align 8, !tbaa !44
  %38 = getelementptr inbounds nuw i8, ptr %37, i64 4
  store i32 86028, ptr %38, align 4, !tbaa !47
  %39 = getelementptr inbounds nuw i8, ptr %11, i64 808
  store i32 2, ptr %39, align 8, !tbaa !48
  %40 = tail call i32 @ff_alloc_extradata(ptr noundef nonnull %37, i32 noundef 34) #7
  %41 = icmp slt i32 %40, 0
  br i1 %41, label %bytestream2_get_byte.exit.thread, label %42

42:                                               ; preds = %35
  %43 = load ptr, ptr %36, align 8, !tbaa !37
  %44 = getelementptr inbounds nuw i8, ptr %43, i64 16
  %45 = load ptr, ptr %44, align 8, !tbaa !61
  tail call void @llvm.memcpy.p0.p0.i64(ptr noundef nonnull align 1 dereferenceable(34) %45, ptr noundef nonnull align 1 dereferenceable(34) %33, i64 34, i1 false)
  %46 = load ptr, ptr %36, align 8, !tbaa !37
  %47 = getelementptr inbounds nuw i8, ptr %46, i64 16
  %48 = load ptr, ptr %47, align 8, !tbaa !61
  %49 = getelementptr inbounds nuw i8, ptr %48, i64 10
  %50 = load i8, ptr %49, align 1, !tbaa !35
  %51 = zext i8 %50 to i32
  %52 = shl nuw nsw i32 %51, 16
  %53 = getelementptr inbounds nuw i8, ptr %48, i64 11
  %54 = load i8, ptr %53, align 1, !tbaa !35
  %55 = zext i8 %54 to i32
  %56 = shl nuw nsw i32 %55, 8
  %57 = or disjoint i32 %56, %52
  %58 = getelementptr inbounds nuw i8, ptr %48, i64 12
  %59 = load i8, ptr %58, align 1, !tbaa !35
  %60 = zext i8 %59 to i32
  %61 = or disjoint i32 %57, %60
  %.not35 = icmp samesign ult i32 %61, 16
  br i1 %.not35, label %bytestream2_get_byte.exit.thread, label %62

62:                                               ; preds = %42
  %63 = lshr i32 %61, 4
  tail call void @avpriv_set_pts_info(ptr noundef nonnull %11, i32 noundef 64, i32 noundef 1, i32 noundef %63) #7
  br label %bytestream2_get_byte.exit.thread

64:                                               ; preds = %bytestream2_get_byte.exit
  %65 = getelementptr inbounds nuw i8, ptr %16, i64 4
  %66 = add nsw i32 %21, -4
  %67 = tail call i32 @ff_vorbis_stream_comment(ptr noundef nonnull %0, ptr noundef %11, ptr noundef nonnull %65, i32 noundef %66) #7
  br label %bytestream2_get_byte.exit.thread

bytestream2_get_byte.exit.thread:                 ; preds = %42, %35, %31, %28, %26, %bytestream2_init.exit, %64, %bytestream2_get_byte.exit, %62, %2
  %.0 = phi i32 [ 0, %2 ], [ 1, %62 ], [ 1, %bytestream2_get_byte.exit ], [ 1, %64 ], [ 1, %bytestream2_init.exit ], [ -1094995529, %42 ], [ %40, %35 ], [ -1, %31 ], [ -1, %28 ], [ -1094995529, %26 ]
  ret i32 %.0
}